target datalayout = "e-m:e-p270:32:32-p271:32:32-p272:64:64-i64:64-i128:128-f80:128-n8:16:32:64-S128"
target triple = "x86_64-pc-linux-gnu"

%class.GraphAcyc = type <{ ptr, %class.V3Graph, %class.V3List.3, %"class.std::vector", ptr, i32, [4 x i8] }>
%class.V3Graph = type { ptr, %class.V3List }
%class.V3List = type { ptr, ptr }
%class.V3List.3 = type { ptr, ptr }
%"class.std::vector" = type { %"struct.std::_Vector_base" }
%"struct.std::_Vector_base" = type { %"struct.std::_Vector_base<std::__cxx11::list<V3GraphEdge *> *, std::allocator<std::__cxx11::list<V3GraphEdge *> *>>::_Vector_impl" }
%"struct.std::_Vector_base<std::__cxx11::list<V3GraphEdge *> *, std::allocator<std::__cxx11::list<V3GraphEdge *> *>>::_Vector_impl" = type { %"struct.std::_Vector_base<std::__cxx11::list<V3GraphEdge *> *, std::allocator<std::__cxx11::list<V3GraphEdge *> *>>::_Vector_impl_data" }
%"struct.std::_Vector_base<std::__cxx11::list<V3GraphEdge *> *, std::allocator<std::__cxx11::list<V3GraphEdge *> *>>::_Vector_impl_data" = type { ptr, ptr, ptr }
%class.V3GraphVertex = type { ptr, %class.V3ListLinks, %class.V3List.0, %class.V3List.1, double, i32, i32, %union.anon }
%class.V3ListLinks = type { ptr, ptr }
%class.V3List.0 = type { ptr, ptr }
%class.V3List.1 = type { ptr, ptr }
%union.anon = type { ptr }
%class.GraphAcycVertex = type <{ %class.V3GraphVertex, ptr, %class.V3ListLinks.2, i32, i8, i8, [2 x i8] }>
%class.V3ListLinks.2 = type { ptr, ptr }
%"class.V3List<V3GraphVertex, &V3GraphVertex::links>::UnlinkableProxy" = type { ptr }
%"class.V3List<V3GraphVertex, &V3GraphVertex::links>::UnlinkableProxy::UnlinkableItertatorImpl" = type { ptr, ptr }

; Function Attrs: alwaysinline mustprogress uwtable
define linkonce_odr dso_local noundef nonnull align 8 dereferenceable(16) ptr @_ZN6V3ListI13V3GraphVertexXadL_ZNS0_5linksEvEES0_E7toLinksEPKS0_(ptr noundef %0) #8 comdat align 2 {
  %2 = alloca ptr, align 8
  store ptr %0, ptr %2, align 8, !tbaa !13
  %3 = load ptr, ptr %2, align 8, !tbaa !13
  %4 = getelementptr inbounds i8, ptr %3, i64 0
  br i1 false, label %5, label %9

5:                                                ; preds = %1
  %6 = load ptr, ptr %4, align 8, !tbaa !31
  %7 = getelementptr i8, ptr %6, i64 sub (i64 ptrtoint (ptr @_ZN13V3GraphVertex5linksEv to i64), i64 1), !nosanitize !66
  %8 = load ptr, ptr %7, align 8, !nosanitize !66
  br label %10

9:                                                ; preds = %1
  br label %10

10:                                               ; preds = %9, %5
  %11 = phi ptr [ %8, %5 ], [ @_ZN13V3GraphVertex5linksEv, %9 ]
  %12 = call noundef nonnull align 8 dereferenceable(16) ptr %11(ptr noundef nonnull align 8 dereferenceable(80) %4)
  ret ptr %12
}

; Function Attrs: alwaysinline mustprogress nounwind uwtable
define linkonce_odr dso_local void @_ZN6V3ListI13V3GraphVertexXadL_ZNS0_5linksEvEES0_E8prefetchEPKS0_S3_(ptr noundef %0, ptr noundef %1) #7 comdat align 2 {
  %3 = alloca ptr, align 8
  %4 = alloca ptr, align 8
  store ptr %0, ptr %3, align 8, !tbaa !13
  store ptr %1, ptr %4, align 8, !tbaa !13
  br label %5

5:                                                ; preds = %2
  br label %6

6:                                                ; preds = %5
  %7 = load ptr, ptr %3, align 8, !tbaa !13
  %8 = icmp ne ptr %7, null
  br i1 %8, label %9, label %11

9:                                                ; preds = %6
  %10 = load ptr, ptr %3, align 8, !tbaa !13
  br label %13

11:                                               ; preds = %6
  %12 = load ptr, ptr %4, align 8, !tbaa !13
  br label %13

13:                                               ; preds = %11, %9
  %14 = phi ptr [ %10, %9 ], [ %12, %11 ]
  call void @llvm.prefetch.p0(ptr %14, i32 1, i32 3, i32 1)
  ret void
}

; Function Attrs: alwaysinline mustprogress nounwind uwtable
define linkonce_odr dso_local void @_ZN6V3ListI13V3GraphVertexXadL_ZNS0_5linksEvEES0_E15UnlinkableProxy23UnlinkableItertatorImplIS0_EC2EDn(ptr noundef nonnull align 8 dereferenceable(16) %0, ptr %1) unnamed_addr #7 comdat align 2 {
  %3 = alloca ptr, align 8
  %4 = alloca ptr, align 8
  store ptr %0, ptr %3, align 8, !tbaa !132
  store ptr %1, ptr %4, align 8, !tbaa !255
  %5 = load ptr, ptr %3, align 8
  %6 = getelementptr inbounds nuw %"class.V3List<V3GraphVertex, &V3GraphVertex::links>::UnlinkableProxy::UnlinkableItertatorImpl", ptr %5, i32 0, i32 0
  store ptr null, ptr %6, align 8, !tbaa !134
  %7 = getelementptr inbounds nuw %"class.V3List<V3GraphVertex, &V3GraphVertex::links>::UnlinkableProxy::UnlinkableItertatorImpl", ptr %5, i32 0, i32 1
  store ptr null, ptr %7, align 8, !tbaa !136
  ret void
}

; Function Attrs: alwaysinline mustprogress uwtable
define linkonce_odr dso_local void @_ZN6V3ListI13V3GraphVertexXadL_ZNS0_5linksEvEES0_E15UnlinkableProxy23UnlinkableItertatorImplIS0_EC2EPS0_(ptr noundef nonnull align 8 dereferenceable(16) %0, ptr noundef %1) unnamed_addr #8 comdat align 2 {
  %3 = alloca ptr, align 8
  %4 = alloca ptr, align 8
  store ptr %0, ptr %3, align 8, !tbaa !132
  store ptr %1, ptr %4, align 8, !tbaa !13
  %5 = load ptr, ptr %3, align 8
  %6 = getelementptr inbounds nuw %"class.V3List<V3GraphVertex, &V3GraphVertex::links>::UnlinkableProxy::UnlinkableItertatorImpl", ptr %5, i32 0, i32 0
  %7 = load ptr, ptr %4, align 8, !tbaa !13
  store ptr %7, ptr %6, align 8, !tbaa !134
  %8 = getelementptr inbounds nuw %"class.V3List<V3GraphVertex, &V3GraphVertex::links>::UnlinkableProxy::UnlinkableItertatorImpl", ptr %5, i32 0, i32 1
  %9 = getelementptr inbounds nuw %"class.V3List<V3GraphVertex, &V3GraphVertex::links>::UnlinkableProxy::UnlinkableItertatorImpl", ptr %5, i32 0, i32 0
  %10 = load ptr, ptr %9, align 8, !tbaa !134
  %11 = call noundef nonnull align 8 dereferenceable(16) ptr @_ZN6V3ListI13V3GraphVertexXadL_ZNS0_5linksEvEES0_E7toLinksEPKS0_(ptr noundef %10)
  %12 = getelementptr inbounds nuw %class.V3ListLinks, ptr %11, i32 0, i32 0
  %13 = load ptr, ptr %12, align 8, !tbaa !137
  store ptr %13, ptr %8, align 8, !tbaa !136
  ret void
}

; Function Attrs: mustprogress nounwind uwtable
define linkonce_odr dso_local void @_ZN6V3ListI13V3GraphVertexXadL_ZNS0_5linksEvEES0_E15UnlinkableProxyC2ERS1_(ptr noundef nonnull align 8 dereferenceable(8) %0, ptr noundef nonnull align 8 dereferenceable(16) %1) unnamed_addr #6 comdat align 2 {
  %3 = alloca ptr, align 8
  %4 = alloca ptr, align 8
  store ptr %0, ptr %3, align 8, !tbaa !128
  store ptr %1, ptr %4, align 8, !tbaa !11
  %5 = load ptr, ptr %3, align 8
  %6 = getelementptr inbounds nuw %"class.V3List<V3GraphVertex, &V3GraphVertex::links>::UnlinkableProxy", ptr %5, i32 0, i32 0
  %7 = load ptr, ptr %4, align 8, !tbaa !11
  store ptr %7, ptr %6, align 8, !tbaa !11
  ret void
}

; Function Attrs: alwaysinline mustprogress uwtable
define linkonce_odr dso_local noundef nonnull align 8 dereferenceable(16) ptr @_ZN6V3ListI13V3GraphVertexXadL_ZNS0_5linksEvEES0_E15UnlinkableProxy23UnlinkableItertatorImplIS0_EppEv(ptr noundef nonnull align 8 dereferenceable(16) %0) #8 comdat align 2 {
  %2 = alloca ptr, align 8
  store ptr %0, ptr %2, align 8, !tbaa !132
  %3 = load ptr, ptr %2, align 8
  br label %4

4:                                                ; preds = %1
  br label %5

5:                                                ; preds = %4
  %6 = getelementptr inbounds nuw %"class.V3List<V3GraphVertex, &V3GraphVertex::links>::UnlinkableProxy::UnlinkableItertatorImpl", ptr %3, i32 0, i32 1
  %7 = load ptr, ptr %6, align 8, !tbaa !136
  %8 = getelementptr inbounds nuw %"class.V3List<V3GraphVertex, &V3GraphVertex::links>::UnlinkableProxy::UnlinkableItertatorImpl", ptr %3, i32 0, i32 0
  store ptr %7, ptr %8, align 8, !tbaa !134
  %9 = getelementptr inbounds nuw %"class.V3List<V3GraphVertex, &V3GraphVertex::links>::UnlinkableProxy::UnlinkableItertatorImpl", ptr %3, i32 0, i32 0
  %10 = load ptr, ptr %9, align 8, !tbaa !134
  %11 = icmp ne ptr %10, null
  br i1 %11, label %12, label %18

12:                                               ; preds = %5
  %13 = getelementptr inbounds nuw %"class.V3List<V3GraphVertex, &V3GraphVertex::links>::UnlinkableProxy::UnlinkableItertatorImpl", ptr %3, i32 0, i32 0
  %14 = load ptr, ptr %13, align 8, !tbaa !134
  %15 = call noundef nonnull align 8 dereferenceable(16) ptr @_ZN6V3ListI13V3GraphVertexXadL_ZNS0_5linksEvEES0_E7toLinksEPKS0_(ptr noundef %14)
  %16 = getelementptr inbounds nuw %class.V3ListLinks, ptr %15, i32 0, i32 0
  %17 = load ptr, ptr %16, align 8, !tbaa !137
  br label %19

18:                                               ; preds = %5
  br label %19

19:                                               ; preds = %18, %12
  %20 = phi ptr [ %17, %12 ], [ null, %18 ]
  %21 = getelementptr inbounds nuw %"class.V3List<V3GraphVertex, &V3GraphVertex::links>::UnlinkableProxy::UnlinkableItertatorImpl", ptr %3, i32 0, i32 1
  store ptr %20, ptr %21, align 8, !tbaa !136
  ret ptr %3
}

; Function Attrs: mustprogress nounwind uwtable
define linkonce_odr dso_local noundef zeroext i1 @_ZNK15GraphAcycVertex8isDeleteEv(ptr noundef nonnull align 8 dereferenceable(112) %0) #6 comdat align 2 {
  %2 = alloca ptr, align 8
  store ptr %0, ptr %2, align 8, !tbaa !15
  %3 = load ptr, ptr %2, align 8
  %4 = getelementptr inbounds nuw %class.GraphAcycVertex, ptr %3, i32 0, i32 5
  %5 = load i8, ptr %4, align 1, !tbaa !39, !range !65, !noundef !66
  %6 = trunc i8 %5 to i1
  ret i1 %6
}

; Function Attrs: alwaysinline mustprogress nounwind uwtable
define linkonce_odr dso_local noundef ptr @_ZNK6V3ListI13V3GraphVertexXadL_ZNS0_5linksEvEES0_E15UnlinkableProxy23UnlinkableItertatorImplIS0_EdeEv(ptr noundef nonnull align 8 dereferenceable(16) %0) #7 comdat align 2 {
  %2 = alloca ptr, align 8
  store ptr %0, ptr %2, align 8, !tbaa !132
  %3 = load ptr, ptr %2, align 8
  br label %4

4:                                                ; preds = %1
  br label %5

5:                                                ; preds = %4
  %6 = getelementptr inbounds nuw %"class.V3List<V3GraphVertex, &V3GraphVertex::links>::UnlinkableProxy::UnlinkableItertatorImpl", ptr %3, i32 0, i32 1
  %7 = load ptr, ptr %6, align 8, !tbaa !136
  %8 = getelementptr inbounds nuw %"class.V3List<V3GraphVertex, &V3GraphVertex::links>::UnlinkableProxy::UnlinkableItertatorImpl", ptr %3, i32 0, i32 0
  %9 = load ptr, ptr %8, align 8, !tbaa !134
  call void @_ZN6V3ListI13V3GraphVertexXadL_ZNS0_5linksEvEES0_E8prefetchEPKS0_S3_(ptr noundef %7, ptr noundef %9)
  %10 = getelementptr inbounds nuw %"class.V3List<V3GraphVertex, &V3GraphVertex::links>::UnlinkableProxy::UnlinkableItertatorImpl", ptr %3, i32 0, i32 0
  %11 = load ptr, ptr %10, align 8, !tbaa !134
  ret ptr %11
}

; Function Attrs: alwaysinline mustprogress nounwind uwtable
define linkonce_odr dso_local noundef zeroext i1 @_ZNK6V3ListI13V3GraphVertexXadL_ZNS0_5linksEvEES0_E15UnlinkableProxy23UnlinkableItertatorImplIS0_EneERKS4_(ptr noundef nonnull align 8 dereferenceable(16) %0, ptr noundef nonnull align 8 dereferenceable(16) %1) #7 comdat align 2 {
  %3 = alloca ptr, align 8
  %4 = alloca ptr, align 8
  store ptr %0, ptr %3, align 8, !tbaa !132
  store ptr %1, ptr %4, align 8, !tbaa !132
  %5 = load ptr, ptr %3, align 8
  %6 = getelementptr inbounds nuw %"class.V3List<V3GraphVertex, &V3GraphVertex::links>::UnlinkableProxy::UnlinkableItertatorImpl", ptr %5, i32 0, i32 0
  %7 = load ptr, ptr %6, align 8, !tbaa !134
  %8 = load ptr, ptr %4, align 8, !tbaa !132
  %9 = getelementptr inbounds nuw %"class.V3List<V3GraphVertex, &V3GraphVertex::links>::UnlinkableProxy::UnlinkableItertatorImpl", ptr %8, i32 0, i32 0
  %10 = load ptr, ptr %9, align 8, !tbaa !134
  %11 = icmp ne ptr %7, %10
  ret i1 %11
}

; Function Attrs: mustprogress uwtable
define linkonce_odr dso_local { ptr, ptr } @_ZN6V3ListI13V3GraphVertexXadL_ZNS0_5linksEvEES0_E15UnlinkableProxy3endEv(ptr noundef nonnull align 8 dereferenceable(8) %0) #4 comdat align 2 {
  %2 = alloca %"class.V3List<V3GraphVertex, &V3GraphVertex::links>::UnlinkableProxy::UnlinkableItertatorImpl", align 8
  %3 = alloca ptr, align 8
  store ptr %0, ptr %3, align 8, !tbaa !128
  call void @_ZN6V3ListI13V3GraphVertexXadL_ZNS0_5linksEvEES0_E15UnlinkableProxy23UnlinkableItertatorImplIS0_EC2EDn(ptr noundef nonnull align 8 dereferenceable(16) %2, ptr null)
  %4 = load { ptr, ptr }, ptr %2, align 8
  ret { ptr, ptr } %4
}

; Function Attrs: mustprogress uwtable
define linkonce_odr dso_local { ptr, ptr } @_ZN6V3ListI13V3GraphVertexXadL_ZNS0_5linksEvEES0_E15UnlinkableProxy5beginEv(ptr noundef nonnull align 8 dereferenceable(8) %0) #4 comdat align 2 {
  %2 = alloca %"class.V3List<V3GraphVertex, &V3GraphVertex::links>::UnlinkableProxy::UnlinkableItertatorImpl", align 8
  %3 = alloca ptr, align 8
  store ptr %0, ptr %3, align 8, !tbaa !128
  %4 = load ptr, ptr %3, align 8
  %5 = getelementptr inbounds nuw %"class.V3List<V3GraphVertex, &V3GraphVertex::links>::UnlinkableProxy", ptr %4, i32 0, i32 0
  %6 = load ptr, ptr %5, align 8, !tbaa !130
  %7 = getelementptr inbounds nuw %class.V3List, ptr %6, i32 0, i32 0
  %8 = load ptr, ptr %7, align 8, !tbaa !17
  %9 = icmp ne ptr %8, null
  br i1 %9, label %10, label %15

10:                                               ; preds = %1
  %11 = getelementptr inbounds nuw %"class.V3List<V3GraphVertex, &V3GraphVertex::links>::UnlinkableProxy", ptr %4, i32 0, i32 0
  %12 = load ptr, ptr %11, align 8, !tbaa !130
  %13 = getelementptr inbounds nuw %class.V3List, ptr %12, i32 0, i32 0
  %14 = load ptr, ptr %13, align 8, !tbaa !17
  call void @_ZN6V3ListI13V3GraphVertexXadL_ZNS0_5linksEvEES0_E15UnlinkableProxy23UnlinkableItertatorImplIS0_EC2EPS0_(ptr noundef nonnull align 8 dereferenceable(16) %2, ptr noundef %14)
  br label %21

15:                                               ; preds = %1
  %16 = call { ptr, ptr } @_ZN6V3ListI13V3GraphVertexXadL_ZNS0_5linksEvEES0_E15UnlinkableProxy3endEv(ptr noundef nonnull align 8 dereferenceable(8) %4)
  %17 = getelementptr inbounds nuw { ptr, ptr }, ptr %2, i32 0, i32 0
  %18 = extractvalue { ptr, ptr } %16, 0
  store ptr %18, ptr %17, align 8
  %19 = getelementptr inbounds nuw { ptr, ptr }, ptr %2, i32 0, i32 1
  %20 = extractvalue { ptr, ptr } %16, 1
  store ptr %20, ptr %19, align 8
  br label %21

21:                                               ; preds = %15, %10
  %22 = load { ptr, ptr }, ptr %2, align 8
  ret { ptr, ptr } %22
}

; Function Attrs: mustprogress uwtable
define linkonce_odr dso_local ptr @_ZN6V3ListI13V3GraphVertexXadL_ZNS0_5linksEvEES0_E10unlinkableEv(ptr noundef nonnull align 8 dereferenceable(16) %0) #4 comdat align 2 {
  %2 = alloca %"class.V3List<V3GraphVertex, &V3GraphVertex::links>::UnlinkableProxy", align 8
  %3 = alloca ptr, align 8
  store ptr %0, ptr %3, align 8, !tbaa !11
  %4 = load ptr, ptr %3, align 8
  call void @_ZN6V3ListI13V3GraphVertexXadL_ZNS0_5linksEvEES0_E15UnlinkableProxyC2ERS1_(ptr noundef nonnull align 8 dereferenceable(8) %2, ptr noundef nonnull align 8 dereferenceable(16) %4)
  %5 = getelementptr inbounds nuw %"class.V3List<V3GraphVertex, &V3GraphVertex::links>::UnlinkableProxy", ptr %2, i32 0, i32 0
  %6 = load ptr, ptr %5, align 8
  ret ptr %6
}

; Function Attrs: mustprogress nounwind uwtable
define linkonce_odr dso_local noundef nonnull align 8 dereferenceable(16) ptr @_ZN7V3Graph8verticesEv(ptr noundef nonnull align 8 dereferenceable(24) %0) #6 comdat align 2 {
  %2 = alloca ptr, align 8
  store ptr %0, ptr %2, align 8, !tbaa !9
  %3 = load ptr, ptr %2, align 8
  %4 = getelementptr inbounds nuw %class.V3Graph, ptr %3, i32 0, i32 1
  ret ptr %4
}

; Function Attrs: mustprogress uwtable
define dso_local void @_ZN9GraphAcyc12deleteMarkedEv(ptr noundef nonnull align 8 dereferenceable(88) %0) #4 align 2 {
  %2 = alloca ptr, align 8
  %3 = alloca ptr, align 8
  %4 = alloca %"class.V3List<V3GraphVertex, &V3GraphVertex::links>::UnlinkableProxy", align 8
  %5 = alloca %"class.V3List<V3GraphVertex, &V3GraphVertex::links>::UnlinkableProxy::UnlinkableItertatorImpl", align 8
  %6 = alloca %"class.V3List<V3GraphVertex, &V3GraphVertex::links>::UnlinkableProxy::UnlinkableItertatorImpl", align 8
  %7 = alloca ptr, align 8
  %8 = alloca ptr, align 8
  store ptr %0, ptr %2, align 8, !tbaa !4
  %9 = load ptr, ptr %2, align 8
  call void @llvm.lifetime.start.p0(i64 8, ptr %3) #3
  call void @llvm.lifetime.start.p0(i64 8, ptr %4) #3
  %10 = getelementptr inbounds nuw %class.GraphAcyc, ptr %9, i32 0, i32 1
  %11 = call noundef nonnull align 8 dereferenceable(16) ptr @_ZN7V3Graph8verticesEv(ptr noundef nonnull align 8 dereferenceable(24) %10)
  %12 = call ptr @_ZN6V3ListI13V3GraphVertexXadL_ZNS0_5linksEvEES0_E10unlinkableEv(ptr noundef nonnull align 8 dereferenceable(16) %11)
  %13 = getelementptr inbounds nuw %"class.V3List<V3GraphVertex, &V3GraphVertex::links>::UnlinkableProxy", ptr %4, i32 0, i32 0
  store ptr %12, ptr %13, align 8
  store ptr %4, ptr %3, align 8, !tbaa !128
  call void @llvm.lifetime.start.p0(i64 16, ptr %5) #3
  %14 = load ptr, ptr %3, align 8, !tbaa !128
  %15 = call { ptr, ptr } @_ZN6V3ListI13V3GraphVertexXadL_ZNS0_5linksEvEES0_E15UnlinkableProxy5beginEv(ptr noundef nonnull align 8 dereferenceable(8) %14)
  %16 = getelementptr inbounds nuw { ptr, ptr }, ptr %5, i32 0, i32 0
  %17 = extractvalue { ptr, ptr } %15, 0
  store ptr %17, ptr %16, align 8
  %18 = getelementptr inbounds nuw { ptr, ptr }, ptr %5, i32 0, i32 1
  %19 = extractvalue { ptr, ptr } %15, 1
  store ptr %19, ptr %18, align 8
  call void @llvm.lifetime.start.p0(i64 16, ptr %6) #3
  %20 = load ptr, ptr %3, align 8, !tbaa !128
  %21 = call { ptr, ptr } @_ZN6V3ListI13V3GraphVertexXadL_ZNS0_5linksEvEES0_E15UnlinkableProxy3endEv(ptr noundef nonnull align 8 dereferenceable(8) %20)
  %22 = getelementptr inbounds nuw { ptr, ptr }, ptr %6, i32 0, i32 0
  %23 = extractvalue { ptr, ptr } %21, 0
  store ptr %23, ptr %22, align 8
  %24 = getelementptr inbounds nuw { ptr, ptr }, ptr %6, i32 0, i32 1
  %25 = extractvalue { ptr, ptr } %21, 1
  store ptr %25, ptr %24, align 8
  br label %26

26:                                               ; preds = %47, %1
  %27 = call noundef zeroext i1 @_ZNK6V3ListI13V3GraphVertexXadL_ZNS0_5linksEvEES0_E15UnlinkableProxy23UnlinkableItertatorImplIS0_EneERKS4_(ptr noundef nonnull align 8 dereferenceable(16) %5, ptr noundef nonnull align 8 dereferenceable(16) %6)
  br i1 %27, label %29, label %28

28:                                               ; preds = %26
  call void @llvm.lifetime.end.p0(i64 16, ptr %6) #3
  call void @llvm.lifetime.end.p0(i64 16, ptr %5) #3
  call void @llvm.lifetime.end.p0(i64 8, ptr %4) #3
  call void @llvm.lifetime.end.p0(i64 8, ptr %3) #3
  br label %49

29:                                               ; preds = %26
  call void @llvm.lifetime.start.p0(i64 8, ptr %7) #3
  %30 = call noundef ptr @_ZNK6V3ListI13V3GraphVertexXadL_ZNS0_5linksEvEES0_E15UnlinkableProxy23UnlinkableItertatorImplIS0_EdeEv(ptr noundef nonnull align 8 dereferenceable(16) %5)
  store ptr %30, ptr %7, align 8, !tbaa !13
  call void @llvm.lifetime.start.p0(i64 8, ptr %8) #3
  %31 = load ptr, ptr %7, align 8, !tbaa !13
  store ptr %31, ptr %8, align 8, !tbaa !15
  %32 = load ptr, ptr %8, align 8, !tbaa !15
  %33 = call noundef zeroext i1 @_ZNK15GraphAcycVertex8isDeleteEv(ptr noundef nonnull align 8 dereferenceable(112) %32)
  br i1 %33, label %34, label %46

34:                                               ; preds = %29
  br label %35

35:                                               ; preds = %34
  br label %36

36:                                               ; preds = %35
  %37 = load ptr, ptr %8, align 8, !tbaa !15
  %38 = getelementptr inbounds nuw %class.GraphAcyc, ptr %9, i32 0, i32 1
  call void @_ZN13V3GraphVertex12unlinkDeleteEP7V3Graph(ptr noundef nonnull align 8 dereferenceable(80) %37, ptr noundef %38)
  br label %39

39:                                               ; preds = %36
  br label %40

40:                                               ; preds = %39
  br label %41

41:                                               ; preds = %40
  store ptr null, ptr %8, align 8, !tbaa !40
  br label %42

42:                                               ; preds = %41
  br label %43

43:                                               ; preds = %42
  br label %44

44:                                               ; preds = %43
  br label %45

45:                                               ; preds = %44
  br label %46

46:                                               ; preds = %45, %29
  call void @llvm.lifetime.end.p0(i64 8, ptr %8) #3
  call void @llvm.lifetime.end.p0(i64 8, ptr %7) #3
  br label %47

47:                                               ; preds = %46
  %48 = call noundef nonnull align 8 dereferenceable(16) ptr @_ZN6V3ListI13V3GraphVertexXadL_ZNS0_5linksEvEES0_E15UnlinkableProxy23UnlinkableItertatorImplIS0_EppEv(ptr noundef nonnull align 8 dereferenceable(16) %5)
  br label %26

49:                                               ; preds = %28
  ret void
}