; Function Attrs: mustprogress uwtable
define dso_local void @_ZN9GraphAcyc12deleteMarkedEv(ptr noundef nonnull align 8 dereferenceable(88) %0) local_unnamed_addr #3 align 2 {
  %2 = getelementptr inbounds nuw i8, ptr %0, i64 8
  %3 = getelementptr inbounds nuw i8, ptr %0, i64 16
  %4 = load ptr, ptr %3, align 8, !tbaa !65
  %.not.i7 = icmp eq ptr %4, null
  br i1 %.not.i7, label %._crit_edge, label %.lr.ph

._crit_edge:                                      ; preds = %12, %1
  ret void

.lr.ph:                                           ; preds = %1, %12
  %.sink17 = phi ptr [ %6, %12 ], [ %4, %1 ]
  %5 = getelementptr inbounds nuw i8, ptr %.sink17, i64 8
  %6 = load ptr, ptr %5, align 8, !tbaa !9
  %.not.i6 = icmp eq ptr %6, null
  %7 = select i1 %.not.i6, ptr %.sink17, ptr %6
  tail call void @llvm.prefetch.p0(ptr nonnull %7, i32 1, i32 3, i32 1)
  %8 = getelementptr inbounds nuw i8, ptr %.sink17, i64 109
  %9 = load i8, ptr %8, align 1, !tbaa !110, !range !45, !noundef !46
  %10 = trunc nuw i8 %9 to i1
  br i1 %10, label %11, label %12

11:                                               ; preds = %.lr.ph
  tail call void @_ZN13V3GraphVertex12unlinkDeleteEP7V3Graph(ptr noundef nonnull align 8 dereferenceable(80) %.sink17, ptr noundef nonnull %2)
  br label %12

12:                                               ; preds = %11, %.lr.ph
  br i1 %.not.i6, label %._crit_edge, label %.lr.ph
}